; Function Attrs: nounwind uwtable
define internal ptr @spl_fixedarray_object_read_dimension(ptr noundef %0, ptr noundef %1, i32 noundef %2, ptr noundef %3) #0 {
  %5 = alloca %struct._zval_struct, align 8
  %6 = alloca %struct._zval_struct, align 8
  %7 = icmp eq i32 %2, 3
  br i1 %7, label %8, label %31

8:                                                ; preds = %4
  call void @llvm.lifetime.start.p0(i64 16, ptr nonnull %5)
  %9 = getelementptr inbounds i8, ptr %0, i64 16
  %10 = load ptr, ptr %9, align 8
  %11 = load ptr, ptr @spl_ce_SplFixedArray, align 8
  %.not.i = icmp eq ptr %10, %11
  br i1 %.not.i, label %.critedge.i, label %12

12:                                               ; preds = %8
  %13 = getelementptr inbounds i8, ptr %10, i64 376
  %14 = load ptr, ptr %13, align 8
  %15 = getelementptr inbounds i8, ptr %14, i64 8
  %16 = load ptr, ptr %15, align 8
  %17 = getelementptr inbounds i8, ptr %16, i64 16
  %18 = load ptr, ptr %17, align 8
  %.not22.i = icmp eq ptr %18, %11
  br i1 %.not22.i, label %.critedge.i, label %19

19:                                               ; preds = %12
  call void @zend_call_known_function(ptr noundef nonnull %16, ptr noundef nonnull %0, ptr noundef nonnull %10, ptr noundef nonnull %5, i32 noundef 1, ptr noundef %1, ptr noundef null) #12
  %20 = call i32 @zend_is_true(ptr noundef nonnull %5) #12
  %.not37 = icmp eq i32 %20, 0
  call void @zval_ptr_dtor(ptr noundef nonnull %5) #12
  call void @llvm.lifetime.end.p0(i64 16, ptr nonnull %5)
  br i1 %.not37, label %spl_fixedarray_object_read_dimension_helper.exit, label %31

.critedge.i:                                      ; preds = %12, %8
  %21 = tail call fastcc i64 @spl_offset_convert_to_long(ptr noundef %1)
  %22 = load ptr, ptr getelementptr inbounds (%struct._zend_executor_globals, ptr @executor_globals, i64 0, i32 50), align 8
  %.not.i.i = icmp ne ptr %22, null
  %23 = icmp slt i64 %21, 0
  %or.cond.i.i = select i1 %.not.i.i, i1 true, i1 %23
  br i1 %or.cond.i.i, label %spl_fixedarray_object_has_dimension.exit.thread, label %24

24:                                               ; preds = %.critedge.i
  %25 = getelementptr inbounds i8, ptr %0, i64 -32
  %26 = load i64, ptr %25, align 8
  %.not11.i.i = icmp slt i64 %21, %26
  br i1 %.not11.i.i, label %spl_fixedarray_object_has_dimension.exit, label %spl_fixedarray_object_has_dimension.exit.thread

spl_fixedarray_object_has_dimension.exit.thread:  ; preds = %.critedge.i, %24
  call void @llvm.lifetime.end.p0(i64 16, ptr nonnull %5)
  br label %spl_fixedarray_object_read_dimension_helper.exit

spl_fixedarray_object_has_dimension.exit:         ; preds = %24
  %27 = getelementptr inbounds i8, ptr %0, i64 -24
  %28 = load ptr, ptr %27, align 8
  %29 = getelementptr inbounds %struct._zval_struct, ptr %28, i64 %21, i32 1
  %30 = load i8, ptr %29, align 8
  %.not38 = icmp eq i8 %30, 1
  call void @llvm.lifetime.end.p0(i64 16, ptr nonnull %5)
  br i1 %.not38, label %spl_fixedarray_object_read_dimension_helper.exit, label %31

31:                                               ; preds = %19, %spl_fixedarray_object_has_dimension.exit, %4
  %32 = getelementptr inbounds i8, ptr %0, i64 16
  %33 = load ptr, ptr %32, align 8
  %34 = load ptr, ptr @spl_ce_SplFixedArray, align 8
  %.not30 = icmp eq ptr %33, %34
  br i1 %.not30, label %.critedge, label %35

35:                                               ; preds = %31
  %36 = getelementptr inbounds i8, ptr %33, i64 376
  %37 = load ptr, ptr %36, align 8
  %38 = load ptr, ptr %37, align 8
  %39 = getelementptr inbounds i8, ptr %38, i64 16
  %40 = load ptr, ptr %39, align 8
  %.not = icmp eq ptr %40, %34
  br i1 %.not, label %.critedge, label %41

41:                                               ; preds = %35
  %.not31 = icmp eq ptr %1, null
  br i1 %.not31, label %42, label %44

42:                                               ; preds = %41
  %43 = getelementptr inbounds i8, ptr %6, i64 8
  store i32 1, ptr %43, align 8
  br label %44

44:                                               ; preds = %42, %41
  %.026 = phi ptr [ %1, %41 ], [ %6, %42 ]
  call void @zend_call_known_function(ptr noundef nonnull %38, ptr noundef nonnull %0, ptr noundef nonnull %33, ptr noundef %3, i32 noundef 1, ptr noundef nonnull %.026, ptr noundef null) #12
  %45 = getelementptr inbounds i8, ptr %3, i64 8
  %46 = load i8, ptr %45, align 8
  %47 = icmp eq i8 %46, 0
  %executor_globals. = select i1 %47, ptr @executor_globals, ptr %3
  br label %spl_fixedarray_object_read_dimension_helper.exit

.critedge:                                        ; preds = %31, %35
  %48 = getelementptr inbounds i8, ptr %0, i64 -32
  %.not.i32 = icmp eq ptr %1, null
  br i1 %.not.i32, label %49, label %50

49:                                               ; preds = %.critedge
  call void (ptr, ptr, ...) @zend_throw_error(ptr noundef null, ptr noundef nonnull @.str.9) #12
  br label %spl_fixedarray_object_read_dimension_helper.exit

50:                                               ; preds = %.critedge
  %51 = call fastcc i64 @spl_offset_convert_to_long(ptr noundef nonnull %1)
  %52 = load ptr, ptr getelementptr inbounds (%struct._zend_executor_globals, ptr @executor_globals, i64 0, i32 50), align 8
  %.not9.i = icmp eq ptr %52, null
  br i1 %.not9.i, label %53, label %spl_fixedarray_object_read_dimension_helper.exit

53:                                               ; preds = %50
  %54 = icmp slt i64 %51, 0
  br i1 %54, label %57, label %55

55:                                               ; preds = %53
  %56 = load i64, ptr %48, align 8
  %.not10.i = icmp slt i64 %51, %56
  br i1 %.not10.i, label %60, label %57

57:                                               ; preds = %55, %53
  %58 = load ptr, ptr @spl_ce_OutOfBoundsException, align 8
  %59 = call ptr @zend_throw_exception(ptr noundef %58, ptr noundef nonnull @.str.10, i64 noundef 0) #12
  br label %spl_fixedarray_object_read_dimension_helper.exit

60:                                               ; preds = %55
  %61 = getelementptr inbounds i8, ptr %0, i64 -24
  %62 = load ptr, ptr %61, align 8
  %63 = getelementptr inbounds %struct._zval_struct, ptr %62, i64 %51
  br label %spl_fixedarray_object_read_dimension_helper.exit

spl_fixedarray_object_read_dimension_helper.exit: ; preds = %19, %60, %57, %50, %49, %spl_fixedarray_object_has_dimension.exit.thread, %44, %spl_fixedarray_object_has_dimension.exit
  %.0 = phi ptr [ @executor_globals, %spl_fixedarray_object_has_dimension.exit ], [ %executor_globals., %44 ], [ @executor_globals, %spl_fixedarray_object_has_dimension.exit.thread ], [ null, %57 ], [ %63, %60 ], [ null, %49 ], [ null, %50 ], [ @executor_globals, %19 ]
  ret ptr %.0
}